target datalayout = "e-m:e-p270:32:32-p271:32:32-p272:64:64-i64:64-i128:128-f80:128-n8:16:32:64-S128"
target triple = "x86_64-pc-linux-gnu"

%struct.slurm_conf_t = type { i64, ptr, i16, ptr, ptr, ptr, ptr, ptr, i16, ptr, ptr, ptr, ptr, ptr, ptr, ptr, i16, ptr, ptr, ptr, ptr, i16, ptr, ptr, ptr, i64, ptr, ptr, ptr, ptr, i16, ptr, ptr, i16, i32, ptr, i32, ptr, i32, i32, ptr, ptr, i64, i64, ptr, i16, i16, ptr, i32, i32, ptr, i32, ptr, i32, i16, i16, i16, ptr, i16, i16, ptr, ptr, i32, i16, i16, ptr, i32, i16, ptr, ptr, ptr, ptr, i16, ptr, ptr, ptr, ptr, i32, ptr, ptr, ptr, ptr, i16, i16, ptr, i32, i32, i32, i16, i16, ptr, ptr, i16, ptr, ptr, i32, i32, i32, i32, i32, i64, i32, i32, i16, ptr, ptr, i32, ptr, ptr, ptr, i16, i32, ptr, ptr, i16, ptr, ptr, i32, i16, ptr, ptr, ptr, ptr, i32, i32, i16, i16, i32, ptr, i16, ptr, i32, i32, i32, i32, i32, i32, ptr, i16, ptr, ptr, i32, i16, ptr, i32, i16, i16, ptr, ptr, ptr, i16, ptr, ptr, ptr, ptr, i16, i16, ptr, i16, ptr, i16, ptr, i16, ptr, i16, ptr, ptr, ptr, ptr, i16, ptr, ptr, ptr, i32, ptr, i32, ptr, ptr, i16, ptr, ptr, i32, i16, ptr, ptr, i16, i16, ptr, i16, ptr, ptr, ptr, i32, ptr, i16, i16, ptr, ptr, ptr, ptr, ptr, ptr, ptr, ptr, i16, i32, i16, ptr, ptr, ptr, ptr, i32, ptr, ptr, ptr, i16, ptr, ptr, ptr, i16, ptr, i16, ptr, i16, i16, ptr }
%struct.forward = type { %struct.slurm_node_alias_addrs_t, i16, i16, ptr, i32, i16, i16 }
%struct.slurm_node_alias_addrs_t = type { i64, ptr, ptr, i32, ptr }
%struct.slurm_protocol_header = type { i16, i16, i16, i32, i16, %struct.forward, %struct.sockaddr_storage, ptr }
%struct.sockaddr_storage = type { i16, [118 x i8], i64 }
%union.pthread_attr_t = type { i64, [48 x i8] }
%struct.forward_message = type { ptr, %struct.slurm_protocol_header, i32 }

@.str.2 = private unnamed_addr constant [10 x i8] c"forward.c\00", align 1
@slurm_conf = external global %struct.slurm_conf_t, align 8
@__func__._forward_msg_internal = private unnamed_addr constant [22 x i8] c"_forward_msg_internal\00", align 1
@.str.19 = private unnamed_addr constant [22 x i8] c"pthread_attr_init: %m\00", align 1
@.str.20 = private unnamed_addr constant [26 x i8] c"pthread_attr_setscope: %m\00", align 1
@.str.21 = private unnamed_addr constant [30 x i8] c"pthread_attr_setstacksize: %m\00", align 1
@.str.22 = private unnamed_addr constant [35 x i8] c"%s: pthread_attr_setdetachstate %m\00", align 1
@.str.23 = private unnamed_addr constant [28 x i8] c"%s: pthread_create error %m\00", align 1
@.str.24 = private unnamed_addr constant [55 x i8] c"pthread_attr_destroy failed, possible memory leak!: %m\00", align 1

; Function Attrs: nounwind uwtable
define dso_local void @forward_init(ptr noundef %0) #0 {
  %2 = alloca ptr, align 8
  %3 = alloca %struct.forward, align 8
  store ptr %0, ptr %2, align 8
  %4 = load ptr, ptr %2, align 8
  call void @llvm.memset.p0.i64(ptr align 8 %3, i8 0, i64 64, i1 false)
  %5 = getelementptr inbounds nuw %struct.forward, ptr %3, i32 0, i32 2
  store i16 -2, ptr %5, align 2
  call void @llvm.memcpy.p0.p0.i64(ptr align 8 %4, ptr align 8 %3, i64 64, i1 false)
  ret void
}

; Function Attrs: nounwind uwtable
define internal void @_forward_msg_internal(ptr noundef %0, ptr noundef %1, ptr noundef %2, ptr noundef %3, i32 noundef %4, i32 noundef %5) #0 {
  %7 = alloca ptr, align 8
  %8 = alloca ptr, align 8
  %9 = alloca ptr, align 8
  %10 = alloca ptr, align 8
  %11 = alloca i32, align 4
  %12 = alloca i32, align 4
  %13 = alloca i32, align 4
  %14 = alloca ptr, align 8
  %15 = alloca ptr, align 8
  %16 = alloca ptr, align 8
  %17 = alloca i64, align 8
  %18 = alloca %union.pthread_attr_t, align 8
  %19 = alloca i32, align 4
  %20 = alloca i32, align 4
  %21 = alloca i32, align 4
  store ptr %0, ptr %7, align 8
  store ptr %1, ptr %8, align 8
  store ptr %2, ptr %9, align 8
  store ptr %3, ptr %10, align 8
  store i32 %4, ptr %11, align 4
  store i32 %5, ptr %12, align 4
  call void @llvm.lifetime.start.p0(i64 4, ptr %13) #8
  call void @llvm.lifetime.start.p0(i64 8, ptr %14) #8
  store ptr null, ptr %14, align 8
  call void @llvm.lifetime.start.p0(i64 8, ptr %15) #8
  store ptr null, ptr %15, align 8
  call void @llvm.lifetime.start.p0(i64 8, ptr %16) #8
  store ptr null, ptr %16, align 8
  %22 = load i32, ptr %11, align 4
  %23 = icmp sle i32 %22, 0
  br i1 %23, label %24, label %28

24:                                               ; preds = %6
  %25 = load i16, ptr getelementptr inbounds nuw (%struct.slurm_conf_t, ptr @slurm_conf, i32 0, i32 110), align 8
  %26 = zext i16 %25 to i32
  %27 = mul nsw i32 %26, 1000
  store i32 %27, ptr %11, align 4
  br label %28

28:                                               ; preds = %24, %6
  store i32 0, ptr %13, align 4
  br label %29

29:                                               ; preds = %184, %28
  %30 = load i32, ptr %13, align 4
  %31 = load i32, ptr %12, align 4
  %32 = icmp slt i32 %30, %31
  br i1 %32, label %33, label %187

33:                                               ; preds = %29
  %34 = call ptr @slurm_xcalloc(i64 noundef 1, i64 noundef 232, i1 noundef zeroext true, i1 noundef zeroext false, ptr noundef @.str.2, i32 noundef 582, ptr noundef @__func__._forward_msg_internal)
  store ptr %34, ptr %14, align 8
  %35 = load ptr, ptr %9, align 8
  %36 = load ptr, ptr %14, align 8
  %37 = getelementptr inbounds nuw %struct.forward_message, ptr %36, i32 0, i32 0
  store ptr %35, ptr %37, align 8
  %38 = load i32, ptr %11, align 4
  %39 = load ptr, ptr %14, align 8
  %40 = getelementptr inbounds nuw %struct.forward_message, ptr %39, i32 0, i32 2
  store i32 %38, ptr %40, align 8
  %41 = load ptr, ptr %14, align 8
  %42 = getelementptr inbounds nuw %struct.forward_message, ptr %41, i32 0, i32 1
  %43 = getelementptr inbounds nuw %struct.slurm_protocol_header, ptr %42, i32 0, i32 6
  %44 = load ptr, ptr %10, align 8
  %45 = getelementptr inbounds nuw %struct.slurm_protocol_header, ptr %44, i32 0, i32 6
  call void @llvm.memcpy.p0.p0.i64(ptr align 8 %43, ptr align 8 %45, i64 128, i1 false)
  %46 = load ptr, ptr %10, align 8
  %47 = getelementptr inbounds nuw %struct.slurm_protocol_header, ptr %46, i32 0, i32 0
  %48 = load i16, ptr %47, align 8
  %49 = load ptr, ptr %14, align 8
  %50 = getelementptr inbounds nuw %struct.forward_message, ptr %49, i32 0, i32 1
  %51 = getelementptr inbounds nuw %struct.slurm_protocol_header, ptr %50, i32 0, i32 0
  store i16 %48, ptr %51, align 8
  %52 = load ptr, ptr %10, align 8
  %53 = getelementptr inbounds nuw %struct.slurm_protocol_header, ptr %52, i32 0, i32 1
  %54 = load i16, ptr %53, align 2
  %55 = load ptr, ptr %14, align 8
  %56 = getelementptr inbounds nuw %struct.forward_message, ptr %55, i32 0, i32 1
  %57 = getelementptr inbounds nuw %struct.slurm_protocol_header, ptr %56, i32 0, i32 1
  store i16 %54, ptr %57, align 2
  %58 = load ptr, ptr %10, align 8
  %59 = getelementptr inbounds nuw %struct.slurm_protocol_header, ptr %58, i32 0, i32 2
  %60 = load i16, ptr %59, align 4
  %61 = load ptr, ptr %14, align 8
  %62 = getelementptr inbounds nuw %struct.forward_message, ptr %61, i32 0, i32 1
  %63 = getelementptr inbounds nuw %struct.slurm_protocol_header, ptr %62, i32 0, i32 2
  store i16 %60, ptr %63, align 4
  %64 = load ptr, ptr %10, align 8
  %65 = getelementptr inbounds nuw %struct.slurm_protocol_header, ptr %64, i32 0, i32 3
  %66 = load i32, ptr %65, align 8
  %67 = load ptr, ptr %14, align 8
  %68 = getelementptr inbounds nuw %struct.forward_message, ptr %67, i32 0, i32 1
  %69 = getelementptr inbounds nuw %struct.slurm_protocol_header, ptr %68, i32 0, i32 3
  store i32 %66, ptr %69, align 8
  %70 = load ptr, ptr %14, align 8
  %71 = getelementptr inbounds nuw %struct.forward_message, ptr %70, i32 0, i32 1
  %72 = getelementptr inbounds nuw %struct.slurm_protocol_header, ptr %71, i32 0, i32 7
  store ptr null, ptr %72, align 8
  %73 = load ptr, ptr %14, align 8
  %74 = getelementptr inbounds nuw %struct.forward_message, ptr %73, i32 0, i32 1
  %75 = getelementptr inbounds nuw %struct.slurm_protocol_header, ptr %74, i32 0, i32 4
  store i16 0, ptr %75, align 4
  %76 = load ptr, ptr %8, align 8
  %77 = icmp ne ptr %76, null
  br i1 %77, label %78, label %90

78:                                               ; preds = %33
  %79 = load ptr, ptr %8, align 8
  %80 = load i32, ptr %13, align 4
  %81 = sext i32 %80 to i64
  %82 = getelementptr inbounds ptr, ptr %79, i64 %81
  %83 = load ptr, ptr %82, align 8
  %84 = call ptr @hostlist_ranged_string_xmalloc(ptr noundef %83)
  store ptr %84, ptr %15, align 8
  %85 = load ptr, ptr %8, align 8
  %86 = load i32, ptr %13, align 4
  %87 = sext i32 %86 to i64
  %88 = getelementptr inbounds ptr, ptr %85, i64 %87
  %89 = load ptr, ptr %88, align 8
  call void @hostlist_destroy(ptr noundef %89)
  br label %96

90:                                               ; preds = %33
  %91 = load ptr, ptr %7, align 8
  %92 = call ptr @hostlist_shift(ptr noundef %91)
  store ptr %92, ptr %16, align 8
  %93 = load ptr, ptr %16, align 8
  %94 = call ptr @xstrdup(ptr noundef %93)
  store ptr %94, ptr %15, align 8
  %95 = load ptr, ptr %16, align 8
  call void @free(ptr noundef %95) #8
  br label %96

96:                                               ; preds = %90, %78
  %97 = load ptr, ptr %14, align 8
  %98 = getelementptr inbounds nuw %struct.forward_message, ptr %97, i32 0, i32 1
  %99 = getelementptr inbounds nuw %struct.slurm_protocol_header, ptr %98, i32 0, i32 5
  call void @forward_init(ptr noundef %99)
  %100 = load ptr, ptr %15, align 8
  %101 = load ptr, ptr %14, align 8
  %102 = getelementptr inbounds nuw %struct.forward_message, ptr %101, i32 0, i32 1
  %103 = getelementptr inbounds nuw %struct.slurm_protocol_header, ptr %102, i32 0, i32 5
  %104 = getelementptr inbounds nuw %struct.forward, ptr %103, i32 0, i32 3
  store ptr %100, ptr %104, align 8
  %105 = load ptr, ptr %10, align 8
  %106 = getelementptr inbounds nuw %struct.slurm_protocol_header, ptr %105, i32 0, i32 5
  %107 = getelementptr inbounds nuw %struct.forward, ptr %106, i32 0, i32 5
  %108 = load i16, ptr %107, align 4
  %109 = load ptr, ptr %14, align 8
  %110 = getelementptr inbounds nuw %struct.forward_message, ptr %109, i32 0, i32 1
  %111 = getelementptr inbounds nuw %struct.slurm_protocol_header, ptr %110, i32 0, i32 5
  %112 = getelementptr inbounds nuw %struct.forward, ptr %111, i32 0, i32 5
  store i16 %108, ptr %112, align 4
  %113 = load ptr, ptr %10, align 8
  %114 = getelementptr inbounds nuw %struct.slurm_protocol_header, ptr %113, i32 0, i32 5
  %115 = getelementptr inbounds nuw %struct.forward, ptr %114, i32 0, i32 6
  %116 = load i16, ptr %115, align 2
  %117 = load ptr, ptr %14, align 8
  %118 = getelementptr inbounds nuw %struct.forward_message, ptr %117, i32 0, i32 1
  %119 = getelementptr inbounds nuw %struct.slurm_protocol_header, ptr %118, i32 0, i32 5
  %120 = getelementptr inbounds nuw %struct.forward, ptr %119, i32 0, i32 6
  store i16 %116, ptr %120, align 2
  %121 = load ptr, ptr %10, align 8
  %122 = getelementptr inbounds nuw %struct.slurm_protocol_header, ptr %121, i32 0, i32 5
  %123 = getelementptr inbounds nuw %struct.forward, ptr %122, i32 0, i32 4
  %124 = load i32, ptr %123, align 8
  %125 = load ptr, ptr %14, align 8
  %126 = getelementptr inbounds nuw %struct.forward_message, ptr %125, i32 0, i32 1
  %127 = getelementptr inbounds nuw %struct.slurm_protocol_header, ptr %126, i32 0, i32 5
  %128 = getelementptr inbounds nuw %struct.forward, ptr %127, i32 0, i32 4
  store i32 %124, ptr %128, align 8
  br label %129

129:                                              ; preds = %96
  call void @llvm.lifetime.start.p0(i64 8, ptr %17) #8
  call void @llvm.lifetime.start.p0(i64 56, ptr %18) #8
  call void @llvm.lifetime.start.p0(i64 4, ptr %19) #8
  br label %130

130:                                              ; preds = %129
  call void @llvm.lifetime.start.p0(i64 4, ptr %20) #8
  %131 = call i32 @pthread_attr_init(ptr noundef %18) #8
  store i32 %131, ptr %20, align 4
  %132 = load i32, ptr %20, align 4
  %133 = icmp ne i32 %132, 0
  br i1 %133, label %134, label %137

134:                                              ; preds = %130
  %135 = load i32, ptr %20, align 4
  %136 = call ptr @__errno_location() #9
  store i32 %135, ptr %136, align 4
  call void (ptr, ...) @fatal(ptr noundef @.str.19) #10
  unreachable

137:                                              ; preds = %130
  %138 = call i32 @pthread_attr_setscope(ptr noundef %18, i32 noundef 0) #8
  store i32 %138, ptr %20, align 4
  %139 = load i32, ptr %20, align 4
  %140 = icmp ne i32 %139, 0
  br i1 %140, label %141, label %145

141:                                              ; preds = %137
  %142 = load i32, ptr %20, align 4
  %143 = call ptr @__errno_location() #9
  store i32 %142, ptr %143, align 4
  %144 = call i32 (ptr, ...) @error(ptr noundef @.str.20)
  br label %145

145:                                              ; preds = %141, %137
  %146 = call i32 @pthread_attr_setstacksize(ptr noundef %18, i64 noundef 1048576) #8
  store i32 %146, ptr %20, align 4
  %147 = load i32, ptr %20, align 4
  %148 = icmp ne i32 %147, 0
  br i1 %148, label %149, label %153

149:                                              ; preds = %145
  %150 = load i32, ptr %20, align 4
  %151 = call ptr @__errno_location() #9
  store i32 %150, ptr %151, align 4
  %152 = call i32 (ptr, ...) @error(ptr noundef @.str.21)
  br label %153

153:                                              ; preds = %149, %145
  call void @llvm.lifetime.end.p0(i64 4, ptr %20) #8
  br label %154

154:                                              ; preds = %153
  br label %155

155:                                              ; preds = %154
  %156 = call i32 @pthread_attr_setdetachstate(ptr noundef %18, i32 noundef 1) #8
  store i32 %156, ptr %19, align 4
  %157 = load i32, ptr %19, align 4
  %158 = icmp ne i32 %157, 0
  br i1 %158, label %159, label %162

159:                                              ; preds = %155
  %160 = load i32, ptr %19, align 4
  %161 = call ptr @__errno_location() #9
  store i32 %160, ptr %161, align 4
  call void (ptr, ...) @fatal(ptr noundef @.str.22, ptr noundef @__func__._forward_msg_internal) #10
  unreachable

162:                                              ; preds = %155
  %163 = load ptr, ptr %14, align 8
  %164 = call i32 @pthread_create(ptr noundef %17, ptr noundef %18, ptr noundef @_forward_thread, ptr noundef %163) #8
  store i32 %164, ptr %19, align 4
  %165 = load i32, ptr %19, align 4
  %166 = icmp ne i32 %165, 0
  br i1 %166, label %167, label %170

167:                                              ; preds = %162
  %168 = load i32, ptr %19, align 4
  %169 = call ptr @__errno_location() #9
  store i32 %168, ptr %169, align 4
  call void (ptr, ...) @fatal(ptr noundef @.str.23, ptr noundef @__func__._forward_msg_internal) #10
  unreachable

170:                                              ; preds = %162
  br label %171

171:                                              ; preds = %170
  call void @llvm.lifetime.start.p0(i64 4, ptr %21) #8
  %172 = call i32 @pthread_attr_destroy(ptr noundef %18) #8
  store i32 %172, ptr %21, align 4
  %173 = load i32, ptr %21, align 4
  %174 = icmp ne i32 %173, 0
  br i1 %174, label %175, label %179

175:                                              ; preds = %171
  %176 = load i32, ptr %21, align 4
  %177 = call ptr @__errno_location() #9
  store i32 %176, ptr %177, align 4
  %178 = call i32 (ptr, ...) @error(ptr noundef @.str.24)
  br label %179

179:                                              ; preds = %175, %171
  call void @llvm.lifetime.end.p0(i64 4, ptr %21) #8
  br label %180

180:                                              ; preds = %179
  br label %181

181:                                              ; preds = %180
  call void @llvm.lifetime.end.p0(i64 4, ptr %19) #8
  call void @llvm.lifetime.end.p0(i64 56, ptr %18) #8
  call void @llvm.lifetime.end.p0(i64 8, ptr %17) #8
  br label %182

182:                                              ; preds = %181
  br label %183

183:                                              ; preds = %182
  br label %184

184:                                              ; preds = %183
  %185 = load i32, ptr %13, align 4
  %186 = add nsw i32 %185, 1
  store i32 %186, ptr %13, align 4
  br label %29, !llvm.loop !8

187:                                              ; preds = %29
  call void @llvm.lifetime.end.p0(i64 8, ptr %16) #8
  call void @llvm.lifetime.end.p0(i64 8, ptr %15) #8
  call void @llvm.lifetime.end.p0(i64 8, ptr %14) #8
  call void @llvm.lifetime.end.p0(i64 4, ptr %13) #8
  ret void
}