; Function Attrs: nounwind uwtable
define internal fastcc void @_forward_msg_internal(ptr noundef %0, ptr noundef readonly captures(address_is_null) %1, ptr noundef %2, ptr noundef readonly captures(none) %3, i32 noundef %4, i32 noundef %5) unnamed_addr #0 {
  %7 = alloca i64, align 8
  %8 = alloca %union.pthread_attr_t, align 8
  %9 = icmp slt i32 %4, 1
  %10 = load i16, ptr getelementptr inbounds nuw (i8, ptr @slurm_conf, i64 744), align 8
  %11 = zext i16 %10 to i32
  %12 = mul nuw nsw i32 %11, 1000
  %.0 = select i1 %9, i32 %12, i32 %4
  %13 = icmp sgt i32 %5, 0
  br i1 %13, label %.lr.ph, label %._crit_edge

.lr.ph:                                           ; preds = %6
  %14 = getelementptr inbounds nuw i8, ptr %3, i64 80
  %15 = getelementptr inbounds nuw i8, ptr %3, i64 2
  %16 = getelementptr inbounds nuw i8, ptr %3, i64 4
  %17 = getelementptr inbounds nuw i8, ptr %3, i64 8
  %.not = icmp eq ptr %1, null
  %18 = getelementptr inbounds nuw i8, ptr %3, i64 76
  %19 = getelementptr inbounds nuw i8, ptr %3, i64 78
  %20 = getelementptr inbounds nuw i8, ptr %3, i64 72
  %wide.trip.count = zext nneg i32 %5 to i64
  br label %21

21:                                               ; preds = %.lr.ph, %78
  %indvars.iv = phi i64 [ 0, %.lr.ph ], [ %indvars.iv.next, %78 ]
  %22 = call ptr @slurm_xcalloc(i64 noundef 1, i64 noundef 232, i1 noundef zeroext true, i1 noundef zeroext false, ptr noundef nonnull @.str.2, i32 noundef 582, ptr noundef nonnull @__func__._forward_msg_internal) #10
  store ptr %2, ptr %22, align 8
  %23 = getelementptr inbounds nuw i8, ptr %22, i64 224
  store i32 %.0, ptr %23, align 8
  %24 = getelementptr inbounds nuw i8, ptr %22, i64 8
  %25 = getelementptr inbounds nuw i8, ptr %22, i64 88
  call void @llvm.memcpy.p0.p0.i64(ptr noundef nonnull align 8 dereferenceable(128) %25, ptr noundef nonnull align 8 dereferenceable(128) %14, i64 128, i1 false)
  %26 = load i16, ptr %3, align 8
  store i16 %26, ptr %24, align 8
  %27 = load i16, ptr %15, align 2
  %28 = getelementptr inbounds nuw i8, ptr %22, i64 10
  store i16 %27, ptr %28, align 2
  %29 = load i16, ptr %16, align 4
  %30 = getelementptr inbounds nuw i8, ptr %22, i64 12
  store i16 %29, ptr %30, align 4
  %31 = load i32, ptr %17, align 8
  %32 = getelementptr inbounds nuw i8, ptr %22, i64 16
  store i32 %31, ptr %32, align 8
  %33 = getelementptr inbounds nuw i8, ptr %22, i64 216
  store ptr null, ptr %33, align 8
  %34 = getelementptr inbounds nuw i8, ptr %22, i64 20
  store i16 0, ptr %34, align 4
  br i1 %.not, label %40, label %35

35:                                               ; preds = %21
  %36 = getelementptr inbounds nuw ptr, ptr %1, i64 %indvars.iv
  %37 = load ptr, ptr %36, align 8
  %38 = call ptr @hostlist_ranged_string_xmalloc(ptr noundef %37) #10
  %39 = load ptr, ptr %36, align 8
  call void @hostlist_destroy(ptr noundef %39) #10
  br label %43

40:                                               ; preds = %21
  %41 = call ptr @hostlist_shift(ptr noundef %0) #10
  %42 = call ptr @xstrdup(ptr noundef %41) #10
  call void @free(ptr noundef %41) #10
  br label %43

43:                                               ; preds = %40, %35
  %.049 = phi ptr [ %38, %35 ], [ %42, %40 ]
  %44 = getelementptr inbounds nuw i8, ptr %22, i64 24
  call void @llvm.memset.p0.i64(ptr noundef nonnull align 8 dereferenceable(42) %44, i8 0, i64 42, i1 false)
  %.sroa.2.0..sroa_idx.i = getelementptr inbounds nuw i8, ptr %22, i64 66
  store i16 -2, ptr %.sroa.2.0..sroa_idx.i, align 2
  %.sroa.3.0..sroa_idx.i = getelementptr inbounds nuw i8, ptr %22, i64 68
  call void @llvm.memset.p0.i64(ptr noundef nonnull align 4 dereferenceable(20) %.sroa.3.0..sroa_idx.i, i8 0, i64 20, i1 false)
  %45 = getelementptr inbounds nuw i8, ptr %22, i64 72
  store ptr %.049, ptr %45, align 8
  %46 = load i16, ptr %18, align 4
  %47 = getelementptr inbounds nuw i8, ptr %22, i64 84
  store i16 %46, ptr %47, align 4
  %48 = load i16, ptr %19, align 2
  %49 = getelementptr inbounds nuw i8, ptr %22, i64 86
  store i16 %48, ptr %49, align 2
  %50 = load i32, ptr %20, align 8
  %51 = getelementptr inbounds nuw i8, ptr %22, i64 80
  store i32 %50, ptr %51, align 8
  call void @llvm.lifetime.start.p0(i64 8, ptr nonnull %7) #10
  call void @llvm.lifetime.start.p0(i64 56, ptr nonnull %8) #10
  %52 = call i32 @pthread_attr_init(ptr noundef nonnull %8) #10
  %.not59 = icmp eq i32 %52, 0
  br i1 %.not59, label %55, label %53

53:                                               ; preds = %43
  %54 = tail call ptr @__errno_location() #11
  store i32 %52, ptr %54, align 4
  call void (ptr, ...) @fatal(ptr noundef nonnull @.str.19) #12
  unreachable

55:                                               ; preds = %43
  %56 = call i32 @pthread_attr_setscope(ptr noundef nonnull %8, i32 noundef 0) #10
  %.not60 = icmp eq i32 %56, 0
  br i1 %.not60, label %60, label %57

57:                                               ; preds = %55
  %58 = tail call ptr @__errno_location() #11
  store i32 %56, ptr %58, align 4
  %59 = call i32 (ptr, ...) @error(ptr noundef nonnull @.str.20) #10
  br label %60

60:                                               ; preds = %57, %55
  %61 = call i32 @pthread_attr_setstacksize(ptr noundef nonnull %8, i64 noundef 1048576) #10
  %.not61 = icmp eq i32 %61, 0
  br i1 %.not61, label %65, label %62

62:                                               ; preds = %60
  %63 = tail call ptr @__errno_location() #11
  store i32 %61, ptr %63, align 4
  %64 = call i32 (ptr, ...) @error(ptr noundef nonnull @.str.21) #10
  br label %65

65:                                               ; preds = %62, %60
  %66 = call i32 @pthread_attr_setdetachstate(ptr noundef nonnull %8, i32 noundef 1) #10
  %.not62 = icmp eq i32 %66, 0
  br i1 %.not62, label %69, label %67

67:                                               ; preds = %65
  %68 = tail call ptr @__errno_location() #11
  store i32 %66, ptr %68, align 4
  call void (ptr, ...) @fatal(ptr noundef nonnull @.str.22, ptr noundef nonnull @__func__._forward_msg_internal) #12
  unreachable

69:                                               ; preds = %65
  %70 = call i32 @pthread_create(ptr noundef nonnull %7, ptr noundef nonnull %8, ptr noundef nonnull @_forward_thread, ptr noundef nonnull %22) #10
  %.not63 = icmp eq i32 %70, 0
  br i1 %.not63, label %73, label %71

71:                                               ; preds = %69
  %72 = tail call ptr @__errno_location() #11
  store i32 %70, ptr %72, align 4
  call void (ptr, ...) @fatal(ptr noundef nonnull @.str.23, ptr noundef nonnull @__func__._forward_msg_internal) #12
  unreachable

73:                                               ; preds = %69
  %74 = call i32 @pthread_attr_destroy(ptr noundef nonnull %8) #10
  %.not64 = icmp eq i32 %74, 0
  br i1 %.not64, label %78, label %75

75:                                               ; preds = %73
  %76 = tail call ptr @__errno_location() #11
  store i32 %74, ptr %76, align 4
  %77 = call i32 (ptr, ...) @error(ptr noundef nonnull @.str.24) #10
  br label %78

78:                                               ; preds = %75, %73
  call void @llvm.lifetime.end.p0(i64 56, ptr nonnull %8) #10
  call void @llvm.lifetime.end.p0(i64 8, ptr nonnull %7) #10
  %indvars.iv.next = add nuw nsw i64 %indvars.iv, 1
  %exitcond.not = icmp eq i64 %indvars.iv.next, %wide.trip.count
  br i1 %exitcond.not, label %._crit_edge, label %21, !llvm.loop !8

._crit_edge:                                      ; preds = %78, %6
  ret void
}